; Function Attrs: mustprogress nofree norecurse nosync nounwind willreturn memory(read, inaccessiblemem: none) uwtable
define internal noundef i32 @_ZL3summmiRKSt6vectorIiSaIiEE(i64 noundef %0, i64 noundef %1, i32 noundef %2, ptr noundef nonnull readonly align 8 captures(none) dereferenceable(24) %3) #4 {
  %5 = icmp ult i64 %0, %1
  br i1 %5, label %.lr.ph, label %._crit_edge

.lr.ph:                                           ; preds = %4
  %6 = load ptr, ptr %3, align 8
  br label %7

7:                                                ; preds = %.lr.ph, %7
  %.09 = phi i64 [ %0, %.lr.ph ], [ %11, %7 ]
  %.078 = phi i32 [ %2, %.lr.ph ], [ %10, %7 ]
  %8 = getelementptr inbounds i32, ptr %6, i64 %.09
  %9 = load i32, ptr %8, align 4
  %10 = add nsw i32 %9, %.078
  %11 = add nuw i64 %.09, 1
  %exitcond.not = icmp eq i64 %11, %1
  br i1 %exitcond.not, label %._crit_edge, label %7, !llvm.loop !16

._crit_edge:                                      ; preds = %7, %4
  %.07.lcssa = phi i32 [ %2, %4 ], [ %10, %7 ]
  ret i32 %.07.lcssa
}